target datalayout = "e-m:e-p270:32:32-p271:32:32-p272:64:64-i64:64-i128:128-f80:128-n8:16:32:64-S128"
target triple = "x86_64-pc-linux-gnu"

@.str = private unnamed_addr constant [26 x i8] c"../qemu/tcg/tcg-op-gvec.c\00", align 1
@__func__.dup_const = private unnamed_addr constant [10 x i8] c"dup_const\00", align 1
@gop_ands = internal constant { ptr, ptr, ptr, ptr, ptr, i32, i8, i8, i8, i8 } { ptr @tcg_gen_and_i64, ptr null, ptr @tcg_gen_and_vec, ptr @gen_helper_gvec_ands, ptr null, i32 0, i8 3, i8 1, i8 0, i8 0 }, align 8

; Function Attrs: nounwind sspstrong uwtable
define dso_local i64 @dup_const(i32 noundef %0, i64 noundef %1) #0 {
  %3 = alloca i64, align 8
  %4 = alloca i32, align 4
  %5 = alloca i64, align 8
  store i32 %0, ptr %4, align 4
  store i64 %1, ptr %5, align 8
  %6 = load i32, ptr %4, align 4
  switch i32 %6, label %24 [
    i32 0, label %7
    i32 1, label %12
    i32 2, label %17
    i32 3, label %22
  ]

7:                                                ; preds = %2
  %8 = load i64, ptr %5, align 8
  %9 = trunc i64 %8 to i8
  %10 = zext i8 %9 to i64
  %11 = mul i64 72340172838076673, %10
  store i64 %11, ptr %3, align 8
  br label %27

12:                                               ; preds = %2
  %13 = load i64, ptr %5, align 8
  %14 = trunc i64 %13 to i16
  %15 = zext i16 %14 to i64
  %16 = mul i64 281479271743489, %15
  store i64 %16, ptr %3, align 8
  br label %27

17:                                               ; preds = %2
  %18 = load i64, ptr %5, align 8
  %19 = trunc i64 %18 to i32
  %20 = zext i32 %19 to i64
  %21 = mul i64 4294967297, %20
  store i64 %21, ptr %3, align 8
  br label %27

22:                                               ; preds = %2
  %23 = load i64, ptr %5, align 8
  store i64 %23, ptr %3, align 8
  br label %27

24:                                               ; preds = %2
  br label %25

25:                                               ; preds = %24
  call void @g_assertion_message_expr(ptr noundef null, ptr noundef @.str, i32 noundef 398, ptr noundef @__func__.dup_const, ptr noundef null) #12
  unreachable

26:                                               ; No predecessors!
  br label %27

27:                                               ; preds = %7, %12, %17, %22, %26
  %28 = load i64, ptr %3, align 8
  ret i64 %28
}

; Function Attrs: nounwind sspstrong uwtable
define dso_local void @tcg_gen_gvec_andi(i32 noundef %0, i32 noundef %1, i32 noundef %2, i64 noundef %3, i32 noundef %4, i32 noundef %5) #0 {
  %7 = alloca i32, align 4
  %8 = alloca i32, align 4
  %9 = alloca i32, align 4
  %10 = alloca i64, align 8
  %11 = alloca i32, align 4
  %12 = alloca i32, align 4
  %13 = alloca ptr, align 8
  store i32 %0, ptr %7, align 4
  store i32 %1, ptr %8, align 4
  store i32 %2, ptr %9, align 4
  store i64 %3, ptr %10, align 8
  store i32 %4, ptr %11, align 4
  store i32 %5, ptr %12, align 4
  call void @llvm.lifetime.start.p0(i64 8, ptr %13) #10
  %14 = load i32, ptr %7, align 4
  %15 = call i1 @llvm.is.constant.i32(i32 %14)
  br i1 %15, label %16, label %55

16:                                               ; preds = %6
  %17 = load i32, ptr %7, align 4
  %18 = icmp eq i32 %17, 0
  br i1 %18, label %19, label %24

19:                                               ; preds = %16
  %20 = load i64, ptr %10, align 8
  %21 = trunc i64 %20 to i8
  %22 = zext i8 %21 to i64
  %23 = mul i64 72340172838076673, %22
  br label %53

24:                                               ; preds = %16
  %25 = load i32, ptr %7, align 4
  %26 = icmp eq i32 %25, 1
  br i1 %26, label %27, label %32

27:                                               ; preds = %24
  %28 = load i64, ptr %10, align 8
  %29 = trunc i64 %28 to i16
  %30 = zext i16 %29 to i64
  %31 = mul i64 281479271743489, %30
  br label %51

32:                                               ; preds = %24
  %33 = load i32, ptr %7, align 4
  %34 = icmp eq i32 %33, 2
  br i1 %34, label %35, label %40

35:                                               ; preds = %32
  %36 = load i64, ptr %10, align 8
  %37 = trunc i64 %36 to i32
  %38 = zext i32 %37 to i64
  %39 = mul i64 4294967297, %38
  br label %49

40:                                               ; preds = %32
  %41 = load i32, ptr %7, align 4
  %42 = icmp eq i32 %41, 3
  br i1 %42, label %43, label %45

43:                                               ; preds = %40
  %44 = load i64, ptr %10, align 8
  br label %47

45:                                               ; preds = %40
  call void @qemu_build_not_reached_always() #12, !srcloc !43
  unreachable

46:                                               ; No predecessors!
  br label %47

47:                                               ; preds = %46, %43
  %48 = phi i64 [ %44, %43 ], [ 0, %46 ]
  br label %49

49:                                               ; preds = %47, %35
  %50 = phi i64 [ %39, %35 ], [ %48, %47 ]
  br label %51

51:                                               ; preds = %49, %27
  %52 = phi i64 [ %31, %27 ], [ %50, %49 ]
  br label %53

53:                                               ; preds = %51, %19
  %54 = phi i64 [ %23, %19 ], [ %52, %51 ]
  br label %59

55:                                               ; preds = %6
  %56 = load i32, ptr %7, align 4
  %57 = load i64, ptr %10, align 8
  %58 = call i64 @dup_const(i32 noundef %56, i64 noundef %57)
  br label %59

59:                                               ; preds = %55, %53
  %60 = phi i64 [ %54, %53 ], [ %58, %55 ]
  %61 = call ptr @tcg_constant_i64(i64 noundef %60)
  store ptr %61, ptr %13, align 8
  %62 = load i32, ptr %8, align 4
  %63 = load i32, ptr %9, align 4
  %64 = load i32, ptr %11, align 4
  %65 = load i32, ptr %12, align 4
  %66 = load ptr, ptr %13, align 8
  call void @tcg_gen_gvec_2s(i32 noundef %62, i32 noundef %63, i32 noundef %64, i32 noundef %65, ptr noundef %66, ptr noundef @gop_ands)
  call void @llvm.lifetime.end.p0(i64 8, ptr %13) #10
  ret void
}